(lp0
(idancing.dancing
Band
p1
(dp2
S'high'
p3
F100.0
sS'scale'
p4
I1
sS'enabled'
p5
I01
sS'servo_id'
p6
I0
sS'low'
p7
F50.0
sba(idancing.dancing
Band
p8
(dp9
g3
I0
sg4
I1
sg5
I00
sg6
I1
sg7
I0
sba(idancing.dancing
Band
p10
(dp11
g3
I0
sg4
I1
sg5
I00
sg6
I2
sg7
I0
sba(idancing.dancing
Band
p12
(dp13
g3
I0
sg4
I1
sg5
I00
sg6
I3
sg7
I0
sba(idancing.dancing
Band
p14
(dp15
g3
I0
sg4
I1
sg5
I00
sg6
I4
sg7
I0
sba(idancing.dancing
Band
p16
(dp17
g3
I0
sg4
I1
sg5
I00
sg6
I5
sg7
I0
sba.